target datalayout = "e-m:e-p270:32:32-p271:32:32-p272:64:64-i64:64-i128:128-f80:128-n8:16:32:64-S128"
target triple = "x86_64-pc-linux-gnu"

%struct._zval_struct = type { %union._zend_value, %union.anon, %union.anon.2 }
%union._zend_value = type { i64 }
%union.anon = type { i32 }
%union.anon.2 = type { i32 }
%struct._zend_refcounted_h = type { i32, %union.anon.3 }
%union.anon.3 = type { i32 }
%struct._xmlAttr = type { ptr, i32, ptr, ptr, ptr, ptr, ptr, ptr, ptr, ptr, i32, ptr }
%struct._dom_object = type { ptr, ptr, ptr, %struct._zend_object }
%struct._zend_object = type { %struct._zend_refcounted_h, i32, i32, ptr, ptr, ptr, [1 x %struct._zval_struct] }
%struct._zend_string = type { %struct._zend_refcounted_h, i64, i64, [1 x i8] }
%struct._php_libxml_ref_obj = type { ptr, ptr, %struct.php_libxml_cache_tag, ptr, ptr, i32, i16 }
%struct.php_libxml_cache_tag = type { i64 }

; Function Attrs: alwaysinline nounwind uwtable
define internal i64 @dom_minimum_modification_nr_since_parsing(ptr noundef %0) #6 {
  %2 = alloca ptr, align 8
  store ptr %0, ptr %2, align 8, !tbaa !69
  %3 = load ptr, ptr %2, align 8, !tbaa !69
  %4 = getelementptr inbounds nuw %struct._php_libxml_ref_obj, ptr %3, i32 0, i32 6
  %5 = load i16, ptr %4, align 4
  %6 = and i16 %5, 255
  %7 = zext i16 %6 to i32
  %8 = icmp eq i32 %7, 2
  %9 = select i1 %8, i32 1, i32 2
  %10 = sext i32 %9 to i64
  ret i64 %10
}

; Function Attrs: alwaysinline nounwind uwtable
define internal void @dom_mark_document_cache_as_modified_since_parsing(ptr noundef %0) #6 {
  %2 = alloca ptr, align 8
  store ptr %0, ptr %2, align 8, !tbaa !69
  %3 = load ptr, ptr %2, align 8, !tbaa !69
  %4 = icmp ne ptr %3, null
  br i1 %4, label %5, label %28

5:                                                ; preds = %1
  %6 = load ptr, ptr %2, align 8, !tbaa !69
  %7 = call i64 @dom_minimum_modification_nr_since_parsing(ptr noundef %6)
  %8 = add i64 %7, 1
  %9 = load ptr, ptr %2, align 8, !tbaa !69
  %10 = getelementptr inbounds nuw %struct._php_libxml_ref_obj, ptr %9, i32 0, i32 2
  %11 = getelementptr inbounds nuw %struct.php_libxml_cache_tag, ptr %10, i32 0, i32 0
  %12 = load i64, ptr %11, align 8, !tbaa !96
  %13 = icmp ugt i64 %8, %12
  br i1 %13, label %14, label %18

14:                                               ; preds = %5
  %15 = load ptr, ptr %2, align 8, !tbaa !69
  %16 = call i64 @dom_minimum_modification_nr_since_parsing(ptr noundef %15)
  %17 = add i64 %16, 1
  br label %23

18:                                               ; preds = %5
  %19 = load ptr, ptr %2, align 8, !tbaa !69
  %20 = getelementptr inbounds nuw %struct._php_libxml_ref_obj, ptr %19, i32 0, i32 2
  %21 = getelementptr inbounds nuw %struct.php_libxml_cache_tag, ptr %20, i32 0, i32 0
  %22 = load i64, ptr %21, align 8, !tbaa !96
  br label %23

23:                                               ; preds = %18, %14
  %24 = phi i64 [ %17, %14 ], [ %22, %18 ]
  %25 = load ptr, ptr %2, align 8, !tbaa !69
  %26 = getelementptr inbounds nuw %struct._php_libxml_ref_obj, ptr %25, i32 0, i32 2
  %27 = getelementptr inbounds nuw %struct.php_libxml_cache_tag, ptr %26, i32 0, i32 0
  store i64 %24, ptr %27, align 8, !tbaa !96
  br label %28

28:                                               ; preds = %23, %1
  ret void
}

; Function Attrs: alwaysinline nounwind uwtable
define internal zeroext i1 @php_dom_follow_spec_doc_ref(ptr noundef %0) #6 {
  %2 = alloca ptr, align 8
  store ptr %0, ptr %2, align 8, !tbaa !69
  %3 = load ptr, ptr %2, align 8, !tbaa !69
  %4 = icmp ne ptr %3, null
  br i1 %4, label %5, label %12

5:                                                ; preds = %1
  %6 = load ptr, ptr %2, align 8, !tbaa !69
  %7 = getelementptr inbounds nuw %struct._php_libxml_ref_obj, ptr %6, i32 0, i32 6
  %8 = load i16, ptr %7, align 4
  %9 = and i16 %8, 255
  %10 = zext i16 %9 to i32
  %11 = icmp eq i32 %10, 2
  br label %12

12:                                               ; preds = %5, %1
  %13 = phi i1 [ false, %1 ], [ %11, %5 ]
  ret i1 %13
}

; Function Attrs: alwaysinline nounwind uwtable
define internal void @dom_mark_ids_modified(ptr noundef %0) #6 {
  %2 = alloca ptr, align 8
  store ptr %0, ptr %2, align 8, !tbaa !69
  %3 = load ptr, ptr %2, align 8, !tbaa !69
  call void @dom_mark_document_cache_as_modified_since_parsing(ptr noundef %3)
  ret void
}

; Function Attrs: alwaysinline nounwind uwtable
define internal zeroext i1 @php_dom_follow_spec_intern(ptr noundef %0) #6 {
  %2 = alloca ptr, align 8
  store ptr %0, ptr %2, align 8, !tbaa !50
  %3 = load ptr, ptr %2, align 8, !tbaa !50
  %4 = icmp ne ptr %3, null
  call void @llvm.assume(i1 %4)
  %5 = load ptr, ptr %2, align 8, !tbaa !50
  %6 = getelementptr inbounds nuw %struct._dom_object, ptr %5, i32 0, i32 1
  %7 = load ptr, ptr %6, align 8, !tbaa !59
  %8 = call zeroext i1 @php_dom_follow_spec_doc_ref(ptr noundef %7)
  ret i1 %8
}

; Function Attrs: nounwind uwtable
define hidden void @dom_attr_value_will_change(ptr noundef %0, ptr noundef %1) #0 {
  %3 = alloca ptr, align 8
  %4 = alloca ptr, align 8
  store ptr %0, ptr %3, align 8, !tbaa !50
  store ptr %1, ptr %4, align 8, !tbaa !11
  %5 = load ptr, ptr %4, align 8, !tbaa !11
  %6 = getelementptr inbounds nuw %struct._xmlAttr, ptr %5, i32 0, i32 10
  %7 = load i32, ptr %6, align 8, !tbaa !67
  %8 = icmp eq i32 %7, 2
  br i1 %8, label %9, label %17

9:                                                ; preds = %2
  %10 = load ptr, ptr %4, align 8, !tbaa !11
  %11 = getelementptr inbounds nuw %struct._xmlAttr, ptr %10, i32 0, i32 8
  %12 = load ptr, ptr %11, align 8, !tbaa !68
  %13 = load ptr, ptr %4, align 8, !tbaa !11
  %14 = call i32 @xmlRemoveID(ptr noundef %12, ptr noundef %13)
  %15 = load ptr, ptr %4, align 8, !tbaa !11
  %16 = getelementptr inbounds nuw %struct._xmlAttr, ptr %15, i32 0, i32 10
  store i32 2, ptr %16, align 8, !tbaa !67
  br label %17

17:                                               ; preds = %9, %2
  %18 = load ptr, ptr %3, align 8, !tbaa !50
  %19 = getelementptr inbounds nuw %struct._dom_object, ptr %18, i32 0, i32 1
  %20 = load ptr, ptr %19, align 8, !tbaa !59
  call void @dom_mark_ids_modified(ptr noundef %20)
  ret void
}

; Function Attrs: nounwind uwtable
define hidden i32 @dom_attr_value_write(ptr noundef %0, ptr noundef %1) #0 {
  %3 = alloca i32, align 4
  %4 = alloca ptr, align 8
  %5 = alloca ptr, align 8
  %6 = alloca ptr, align 8
  %7 = alloca i32, align 4
  %8 = alloca ptr, align 8
  %9 = alloca ptr, align 8
  store ptr %0, ptr %4, align 8, !tbaa !50
  store ptr %1, ptr %5, align 8, !tbaa !9
  call void @llvm.lifetime.start.p0(i64 8, ptr %6) #11
  %10 = load ptr, ptr %4, align 8, !tbaa !50
  %11 = call ptr @dom_object_get_node(ptr noundef %10)
  store ptr %11, ptr %6, align 8, !tbaa !11
  %12 = load ptr, ptr %6, align 8, !tbaa !11
  %13 = icmp eq ptr %12, null
  %14 = xor i1 %13, true
  %15 = xor i1 %14, true
  %16 = zext i1 %15 to i32
  %17 = sext i32 %16 to i64
  %18 = call i64 @llvm.expect.i64(i64 %17, i64 0)
  %19 = icmp ne i64 %18, 0
  br i1 %19, label %20, label %21

20:                                               ; preds = %2
  call void @php_dom_throw_error(i32 noundef 11, i1 noundef zeroext true)
  store i32 -1, ptr %3, align 4
  store i32 1, ptr %7, align 4
  br label %55

21:                                               ; preds = %2
  %22 = load ptr, ptr %4, align 8, !tbaa !50
  %23 = load ptr, ptr %6, align 8, !tbaa !11
  call void @dom_attr_value_will_change(ptr noundef %22, ptr noundef %23)
  call void @llvm.lifetime.start.p0(i64 8, ptr %8) #11
  %24 = load ptr, ptr %5, align 8, !tbaa !9
  %25 = getelementptr inbounds nuw %struct._zval_struct, ptr %24, i32 0, i32 0
  %26 = load ptr, ptr %25, align 8, !tbaa !17
  store ptr %26, ptr %8, align 8, !tbaa !54
  %27 = load ptr, ptr %6, align 8, !tbaa !11
  call void @dom_remove_all_children(ptr noundef %27)
  %28 = load ptr, ptr %4, align 8, !tbaa !50
  %29 = call zeroext i1 @php_dom_follow_spec_intern(ptr noundef %28)
  br i1 %29, label %30, label %45

30:                                               ; preds = %21
  call void @llvm.lifetime.start.p0(i64 8, ptr %9) #11
  %31 = load ptr, ptr %6, align 8, !tbaa !11
  %32 = getelementptr inbounds nuw %struct._xmlAttr, ptr %31, i32 0, i32 8
  %33 = load ptr, ptr %32, align 8, !tbaa !68
  %34 = load ptr, ptr %8, align 8, !tbaa !54
  %35 = getelementptr inbounds nuw %struct._zend_string, ptr %34, i32 0, i32 3
  %36 = getelementptr inbounds [1 x i8], ptr %35, i64 0, i64 0
  %37 = load ptr, ptr %8, align 8, !tbaa !54
  %38 = getelementptr inbounds nuw %struct._zend_string, ptr %37, i32 0, i32 2
  %39 = load i64, ptr %38, align 8, !tbaa !70
  %40 = trunc i64 %39 to i32
  %41 = call ptr @xmlNewDocTextLen(ptr noundef %33, ptr noundef %36, i32 noundef %40)
  store ptr %41, ptr %9, align 8, !tbaa !13
  %42 = load ptr, ptr %6, align 8, !tbaa !11
  %43 = load ptr, ptr %9, align 8, !tbaa !13
  %44 = call ptr @xmlAddChild(ptr noundef %42, ptr noundef %43)
  call void @llvm.lifetime.end.p0(i64 8, ptr %9) #11
  br label %54

45:                                               ; preds = %21
  %46 = load ptr, ptr %6, align 8, !tbaa !11
  %47 = load ptr, ptr %8, align 8, !tbaa !54
  %48 = getelementptr inbounds nuw %struct._zend_string, ptr %47, i32 0, i32 3
  %49 = getelementptr inbounds [1 x i8], ptr %48, i64 0, i64 0
  %50 = load ptr, ptr %8, align 8, !tbaa !54
  %51 = getelementptr inbounds nuw %struct._zend_string, ptr %50, i32 0, i32 2
  %52 = load i64, ptr %51, align 8, !tbaa !70
  %53 = trunc i64 %52 to i32
  call void @xmlNodeSetContentLen(ptr noundef %46, ptr noundef %49, i32 noundef %53)
  br label %54

54:                                               ; preds = %45, %30
  store i32 0, ptr %3, align 4
  store i32 1, ptr %7, align 4
  call void @llvm.lifetime.end.p0(i64 8, ptr %8) #11
  br label %55

55:                                               ; preds = %54, %20
  call void @llvm.lifetime.end.p0(i64 8, ptr %6) #11
  %56 = load i32, ptr %3, align 4
  ret i32 %56
}