; Function Attrs: nounwind uwtable
define hidden range(i32 -1, 1) i32 @dom_attr_value_write(ptr noundef %0, ptr noundef readonly captures(none) %1) local_unnamed_addr #0 {
  %3 = tail call ptr @dom_object_get_node(ptr noundef %0) #8
  %4 = icmp eq ptr %3, null
  br i1 %4, label %5, label %6, !prof !44

5:                                                ; preds = %2
  tail call void @php_dom_throw_error(i32 noundef 11, i1 noundef zeroext true) #8
  br label %45

6:                                                ; preds = %2
  %7 = getelementptr inbounds nuw i8, ptr %3, i64 80
  %8 = load i32, ptr %7, align 8, !tbaa !60
  %9 = icmp eq i32 %8, 2
  br i1 %9, label %10, label %14

10:                                               ; preds = %6
  %11 = getelementptr inbounds nuw i8, ptr %3, i64 64
  %12 = load ptr, ptr %11, align 8, !tbaa !61
  %13 = tail call i32 @xmlRemoveID(ptr noundef %12, ptr noundef nonnull %3) #8
  store i32 2, ptr %7, align 8, !tbaa !60
  br label %14

14:                                               ; preds = %10, %6
  %15 = getelementptr inbounds nuw i8, ptr %0, i64 8
  %16 = load ptr, ptr %15, align 8, !tbaa !45
  %.not.i.i = icmp eq ptr %16, null
  br i1 %.not.i.i, label %dom_attr_value_will_change.exit, label %17

17:                                               ; preds = %14
  %18 = getelementptr inbounds nuw i8, ptr %16, i64 44
  %19 = load i16, ptr %18, align 4
  %20 = and i16 %19, 255
  %21 = icmp eq i16 %20, 2
  %22 = select i1 %21, i64 1, i64 2
  %23 = getelementptr inbounds nuw i8, ptr %16, i64 16
  %24 = load i64, ptr %23, align 8, !tbaa !62
  %.not7.i.i = icmp ult i64 %22, %24
  %25 = add nuw nsw i64 %22, 1
  %spec.select.i = select i1 %.not7.i.i, i64 %24, i64 %25
  store i64 %spec.select.i, ptr %23, align 8, !tbaa !62
  br label %dom_attr_value_will_change.exit

dom_attr_value_will_change.exit:                  ; preds = %14, %17
  %26 = load ptr, ptr %1, align 8, !tbaa !9
  tail call void @dom_remove_all_children(ptr noundef nonnull %3) #8
  %27 = load ptr, ptr %15, align 8, !tbaa !45
  %.not.i = icmp eq ptr %27, null
  br i1 %.not.i, label %php_dom_follow_spec_doc_ref.exit.thread, label %php_dom_follow_spec_doc_ref.exit

php_dom_follow_spec_doc_ref.exit:                 ; preds = %dom_attr_value_will_change.exit
  %28 = getelementptr inbounds nuw i8, ptr %27, i64 44
  %29 = load i16, ptr %28, align 4
  %30 = and i16 %29, 255
  %31 = icmp eq i16 %30, 2
  br i1 %31, label %32, label %php_dom_follow_spec_doc_ref.exit.thread

32:                                               ; preds = %php_dom_follow_spec_doc_ref.exit
  %33 = getelementptr inbounds nuw i8, ptr %3, i64 64
  %34 = load ptr, ptr %33, align 8, !tbaa !61
  %35 = getelementptr inbounds nuw i8, ptr %26, i64 24
  %36 = getelementptr inbounds nuw i8, ptr %26, i64 16
  %37 = load i64, ptr %36, align 8, !tbaa !59
  %38 = trunc i64 %37 to i32
  %39 = tail call ptr @xmlNewDocTextLen(ptr noundef %34, ptr noundef nonnull %35, i32 noundef %38) #8
  %40 = tail call ptr @xmlAddChild(ptr noundef nonnull %3, ptr noundef %39) #8
  br label %45

php_dom_follow_spec_doc_ref.exit.thread:          ; preds = %dom_attr_value_will_change.exit, %php_dom_follow_spec_doc_ref.exit
  %41 = getelementptr inbounds nuw i8, ptr %26, i64 24
  %42 = getelementptr inbounds nuw i8, ptr %26, i64 16
  %43 = load i64, ptr %42, align 8, !tbaa !59
  %44 = trunc i64 %43 to i32
  tail call void @xmlNodeSetContentLen(ptr noundef nonnull %3, ptr noundef nonnull %41, i32 noundef %44) #8
  br label %45

45:                                               ; preds = %32, %php_dom_follow_spec_doc_ref.exit.thread, %5
  %.0 = phi i32 [ -1, %5 ], [ 0, %php_dom_follow_spec_doc_ref.exit.thread ], [ 0, %32 ]
  ret i32 %.0
}